; Function Attrs: mustprogress uwtable
define dso_local noundef nonnull align 8 dereferenceable(32) ptr @_ZNK25cmInstallCommandArguments12GetComponentB5cxx11Ev(ptr noundef nonnull readonly align 8 dereferenceable(440) %0) local_unnamed_addr #5 align 2 personality ptr @__gxx_personality_v0 {
  %2 = alloca %"class.std::allocator", align 1
  br label %tailrecurse

tailrecurse:                                      ; preds = %6, %1
  %.tr = phi ptr [ %0, %1 ], [ %8, %6 ]
  %3 = getelementptr inbounds nuw i8, ptr %.tr, i64 152
  %4 = load i64, ptr %3, align 8, !tbaa !10
  %5 = icmp eq i64 %4, 0
  br i1 %5, label %6, label %.loopexit

6:                                                ; preds = %tailrecurse
  %7 = getelementptr inbounds nuw i8, ptr %.tr, i64 400
  %8 = load ptr, ptr %7, align 8, !tbaa !41
  %.not = icmp eq ptr %8, null
  br i1 %.not, label %9, label %tailrecurse

9:                                                ; preds = %6
  %10 = getelementptr inbounds nuw i8, ptr %.tr, i64 408
  %11 = getelementptr inbounds nuw i8, ptr %.tr, i64 416
  %12 = load i64, ptr %11, align 8, !tbaa !10
  %13 = icmp eq i64 %12, 0
  br i1 %13, label %14, label %25

14:                                               ; preds = %9
  %15 = load atomic i8, ptr @_ZGVZNK25cmInstallCommandArguments12GetComponentB5cxx11EvE20unspecifiedComponentB5cxx11 acquire, align 8
  %16 = icmp eq i8 %15, 0
  br i1 %16, label %17, label %25, !prof !62

17:                                               ; preds = %14
  %18 = tail call i32 @__cxa_guard_acquire(ptr nonnull @_ZGVZNK25cmInstallCommandArguments12GetComponentB5cxx11EvE20unspecifiedComponentB5cxx11) #25
  %.not4 = icmp eq i32 %18, 0
  br i1 %.not4, label %25, label %19

19:                                               ; preds = %17
  call void @llvm.lifetime.start.p0(i64 1, ptr nonnull %2) #25
  invoke void @_ZNSt7__cxx1112basic_stringIcSt11char_traitsIcESaIcEEC2IS3_EEPKcRKS3_(ptr noundef nonnull align 8 dereferenceable(32) @_ZZNK25cmInstallCommandArguments12GetComponentB5cxx11EvE20unspecifiedComponentB5cxx11, ptr noundef nonnull @.str.24, ptr noundef nonnull align 1 dereferenceable(1) %2)
          to label %20 unwind label %22

20:                                               ; preds = %19
  call void @llvm.lifetime.end.p0(i64 1, ptr nonnull %2) #25
  %21 = call i32 @__cxa_atexit(ptr nonnull @_ZNSt7__cxx1112basic_stringIcSt11char_traitsIcESaIcEED2Ev, ptr nonnull @_ZZNK25cmInstallCommandArguments12GetComponentB5cxx11EvE20unspecifiedComponentB5cxx11, ptr nonnull @__dso_handle) #25
  call void @__cxa_guard_release(ptr nonnull @_ZGVZNK25cmInstallCommandArguments12GetComponentB5cxx11EvE20unspecifiedComponentB5cxx11) #25
  br label %25

22:                                               ; preds = %19
  %23 = landingpad { ptr, i32 }
          cleanup
  call void @llvm.lifetime.end.p0(i64 1, ptr nonnull %2) #25
  call void @__cxa_guard_abort(ptr nonnull @_ZGVZNK25cmInstallCommandArguments12GetComponentB5cxx11EvE20unspecifiedComponentB5cxx11) #25
  resume { ptr, i32 } %23

.loopexit:                                        ; preds = %tailrecurse
  %24 = getelementptr inbounds nuw i8, ptr %.tr, i64 144
  br label %25

25:                                               ; preds = %.loopexit, %14, %17, %20, %9
  %.0 = phi ptr [ %10, %9 ], [ @_ZZNK25cmInstallCommandArguments12GetComponentB5cxx11EvE20unspecifiedComponentB5cxx11, %20 ], [ @_ZZNK25cmInstallCommandArguments12GetComponentB5cxx11EvE20unspecifiedComponentB5cxx11, %17 ], [ @_ZZNK25cmInstallCommandArguments12GetComponentB5cxx11EvE20unspecifiedComponentB5cxx11, %14 ], [ %24, %.loopexit ]
  ret ptr %.0
}